target datalayout = "e-m:e-p270:32:32-p271:32:32-p272:64:64-i64:64-i128:128-f80:128-n8:16:32:64-S128"
target triple = "x86_64-pc-linux-gnu"

%struct.grep_opt = type { ptr, ptr, ptr, ptr, ptr, ptr, i32, i32, i32, i32, i32, i32, i32, i32, i32, i32, i32, i32, i32, i32, i32, i32, i32, i32, i32, i32, i32, i32, i32, i32, i32, i32, [9 x [75 x i8]], i32, i32, i32, i32, i32, i32, i32, ptr, ptr, ptr }
%struct.grep_pat = type { ptr, ptr, i32, i32, ptr, i64, i32, %struct.re_pattern_buffer, ptr, ptr, ptr, ptr, ptr, i32, i8 }
%struct.re_pattern_buffer = type { ptr, i64, i64, i64, ptr, ptr, i64, i8 }
%struct.regmatch_t = type { i32, i32 }

; Function Attrs: nounwind uwtable
define internal i32 @match_next_pattern(ptr noundef %0, ptr noundef %1, ptr noundef %2, i32 noundef %3, ptr noundef %4, i32 noundef %5) #0 {
  %7 = alloca i32, align 4
  %8 = alloca ptr, align 8
  %9 = alloca ptr, align 8
  %10 = alloca ptr, align 8
  %11 = alloca i32, align 4
  %12 = alloca ptr, align 8
  %13 = alloca i32, align 4
  %14 = alloca %struct.regmatch_t, align 4
  %15 = alloca i32, align 4
  store ptr %0, ptr %8, align 8, !tbaa !44
  store ptr %1, ptr %9, align 8, !tbaa !9
  store ptr %2, ptr %10, align 8, !tbaa !9
  store i32 %3, ptr %11, align 4, !tbaa !33
  store ptr %4, ptr %12, align 8, !tbaa !18
  store i32 %5, ptr %13, align 4, !tbaa !33
  call void @llvm.lifetime.start.p0(i64 8, ptr %14) #11
  %16 = load ptr, ptr %8, align 8, !tbaa !44
  %17 = load ptr, ptr %9, align 8, !tbaa !9
  %18 = load ptr, ptr %10, align 8, !tbaa !9
  %19 = load i32, ptr %11, align 4, !tbaa !33
  %20 = load i32, ptr %13, align 4, !tbaa !33
  %21 = call i32 @headerless_match_one_pattern(ptr noundef %16, ptr noundef %17, ptr noundef %18, i32 noundef %19, ptr noundef %14, i32 noundef %20)
  %22 = icmp ne i32 %21, 0
  br i1 %22, label %24, label %23

23:                                               ; preds = %6
  store i32 0, ptr %7, align 4
  store i32 1, ptr %15, align 4
  br label %76

24:                                               ; preds = %6
  %25 = getelementptr inbounds nuw %struct.regmatch_t, ptr %14, i32 0, i32 0
  %26 = load i32, ptr %25, align 4, !tbaa !83
  %27 = icmp slt i32 %26, 0
  br i1 %27, label %32, label %28

28:                                               ; preds = %24
  %29 = getelementptr inbounds nuw %struct.regmatch_t, ptr %14, i32 0, i32 1
  %30 = load i32, ptr %29, align 4, !tbaa !81
  %31 = icmp slt i32 %30, 0
  br i1 %31, label %32, label %33

32:                                               ; preds = %28, %24
  store i32 0, ptr %7, align 4
  store i32 1, ptr %15, align 4
  br label %76

33:                                               ; preds = %28
  %34 = load ptr, ptr %12, align 8, !tbaa !18
  %35 = getelementptr inbounds nuw %struct.regmatch_t, ptr %34, i32 0, i32 0
  %36 = load i32, ptr %35, align 4, !tbaa !83
  %37 = icmp sge i32 %36, 0
  br i1 %37, label %38, label %67

38:                                               ; preds = %33
  %39 = load ptr, ptr %12, align 8, !tbaa !18
  %40 = getelementptr inbounds nuw %struct.regmatch_t, ptr %39, i32 0, i32 1
  %41 = load i32, ptr %40, align 4, !tbaa !81
  %42 = icmp sge i32 %41, 0
  br i1 %42, label %43, label %67

43:                                               ; preds = %38
  %44 = getelementptr inbounds nuw %struct.regmatch_t, ptr %14, i32 0, i32 0
  %45 = load i32, ptr %44, align 4, !tbaa !83
  %46 = load ptr, ptr %12, align 8, !tbaa !18
  %47 = getelementptr inbounds nuw %struct.regmatch_t, ptr %46, i32 0, i32 0
  %48 = load i32, ptr %47, align 4, !tbaa !83
  %49 = icmp sgt i32 %45, %48
  br i1 %49, label %50, label %51

50:                                               ; preds = %43
  store i32 1, ptr %7, align 4
  store i32 1, ptr %15, align 4
  br label %76

51:                                               ; preds = %43
  %52 = getelementptr inbounds nuw %struct.regmatch_t, ptr %14, i32 0, i32 0
  %53 = load i32, ptr %52, align 4, !tbaa !83
  %54 = load ptr, ptr %12, align 8, !tbaa !18
  %55 = getelementptr inbounds nuw %struct.regmatch_t, ptr %54, i32 0, i32 0
  %56 = load i32, ptr %55, align 4, !tbaa !83
  %57 = icmp eq i32 %53, %56
  br i1 %57, label %58, label %66

58:                                               ; preds = %51
  %59 = getelementptr inbounds nuw %struct.regmatch_t, ptr %14, i32 0, i32 1
  %60 = load i32, ptr %59, align 4, !tbaa !81
  %61 = load ptr, ptr %12, align 8, !tbaa !18
  %62 = getelementptr inbounds nuw %struct.regmatch_t, ptr %61, i32 0, i32 1
  %63 = load i32, ptr %62, align 4, !tbaa !81
  %64 = icmp slt i32 %60, %63
  br i1 %64, label %65, label %66

65:                                               ; preds = %58
  store i32 1, ptr %7, align 4
  store i32 1, ptr %15, align 4
  br label %76

66:                                               ; preds = %58, %51
  br label %67

67:                                               ; preds = %66, %38, %33
  %68 = getelementptr inbounds nuw %struct.regmatch_t, ptr %14, i32 0, i32 0
  %69 = load i32, ptr %68, align 4, !tbaa !83
  %70 = load ptr, ptr %12, align 8, !tbaa !18
  %71 = getelementptr inbounds nuw %struct.regmatch_t, ptr %70, i32 0, i32 0
  store i32 %69, ptr %71, align 4, !tbaa !83
  %72 = getelementptr inbounds nuw %struct.regmatch_t, ptr %14, i32 0, i32 1
  %73 = load i32, ptr %72, align 4, !tbaa !81
  %74 = load ptr, ptr %12, align 8, !tbaa !18
  %75 = getelementptr inbounds nuw %struct.regmatch_t, ptr %74, i32 0, i32 1
  store i32 %73, ptr %75, align 4, !tbaa !81
  store i32 1, ptr %7, align 4
  store i32 1, ptr %15, align 4
  br label %76

76:                                               ; preds = %67, %65, %50, %32, %23
  call void @llvm.lifetime.end.p0(i64 8, ptr %14) #11
  %77 = load i32, ptr %7, align 4
  ret i32 %77
}

; Function Attrs: nounwind uwtable
define dso_local i32 @grep_next_match(ptr noundef %0, ptr noundef %1, ptr noundef %2, i32 noundef %3, ptr noundef %4, i32 noundef %5, i32 noundef %6) #0 {
  %8 = alloca ptr, align 8
  %9 = alloca ptr, align 8
  %10 = alloca ptr, align 8
  %11 = alloca i32, align 4
  %12 = alloca ptr, align 8
  %13 = alloca i32, align 4
  %14 = alloca i32, align 4
  %15 = alloca ptr, align 8
  %16 = alloca i32, align 4
  store ptr %0, ptr %8, align 8, !tbaa !19
  store ptr %1, ptr %9, align 8, !tbaa !9
  store ptr %2, ptr %10, align 8, !tbaa !9
  store i32 %3, ptr %11, align 4, !tbaa !33
  store ptr %4, ptr %12, align 8, !tbaa !18
  store i32 %5, ptr %13, align 4, !tbaa !33
  store i32 %6, ptr %14, align 4, !tbaa !33
  call void @llvm.lifetime.start.p0(i64 8, ptr %15) #11
  call void @llvm.lifetime.start.p0(i64 4, ptr %16) #11
  store i32 0, ptr %16, align 4, !tbaa !33
  %17 = load ptr, ptr %12, align 8, !tbaa !18
  %18 = getelementptr inbounds nuw %struct.regmatch_t, ptr %17, i32 0, i32 1
  store i32 -1, ptr %18, align 4, !tbaa !81
  %19 = load ptr, ptr %12, align 8, !tbaa !18
  %20 = getelementptr inbounds nuw %struct.regmatch_t, ptr %19, i32 0, i32 0
  store i32 -1, ptr %20, align 4, !tbaa !83
  %21 = load ptr, ptr %9, align 8, !tbaa !9
  %22 = load ptr, ptr %10, align 8, !tbaa !9
  %23 = icmp ult ptr %21, %22
  br i1 %23, label %24, label %72

24:                                               ; preds = %7
  %25 = load i32, ptr %11, align 4, !tbaa !33
  %26 = icmp eq i32 %25, 0
  br i1 %26, label %27, label %31

27:                                               ; preds = %24
  %28 = load ptr, ptr %8, align 8, !tbaa !19
  %29 = getelementptr inbounds nuw %struct.grep_opt, ptr %28, i32 0, i32 2
  %30 = load ptr, ptr %29, align 8, !tbaa !69
  br label %35

31:                                               ; preds = %24
  %32 = load ptr, ptr %8, align 8, !tbaa !19
  %33 = getelementptr inbounds nuw %struct.grep_opt, ptr %32, i32 0, i32 0
  %34 = load ptr, ptr %33, align 8, !tbaa !63
  br label %35

35:                                               ; preds = %31, %27
  %36 = phi ptr [ %30, %27 ], [ %34, %31 ]
  store ptr %36, ptr %15, align 8, !tbaa !44
  br label %37

37:                                               ; preds = %67, %35
  %38 = load ptr, ptr %15, align 8, !tbaa !44
  %39 = icmp ne ptr %38, null
  br i1 %39, label %40, label %71

40:                                               ; preds = %37
  %41 = load ptr, ptr %15, align 8, !tbaa !44
  %42 = getelementptr inbounds nuw %struct.grep_pat, ptr %41, i32 0, i32 3
  %43 = load i32, ptr %42, align 4, !tbaa !54
  switch i32 %43, label %65 [
    i32 1, label %44
    i32 0, label %55
    i32 2, label %55
  ]

44:                                               ; preds = %40
  %45 = load i32, ptr %13, align 4, !tbaa !33
  %46 = icmp ne i32 %45, 3
  br i1 %46, label %47, label %54

47:                                               ; preds = %44
  %48 = load ptr, ptr %15, align 8, !tbaa !44
  %49 = getelementptr inbounds nuw %struct.grep_pat, ptr %48, i32 0, i32 6
  %50 = load i32, ptr %49, align 8, !tbaa !55
  %51 = load i32, ptr %13, align 4, !tbaa !33
  %52 = icmp ne i32 %50, %51
  br i1 %52, label %53, label %54

53:                                               ; preds = %47
  br label %67

54:                                               ; preds = %47, %44
  br label %55

55:                                               ; preds = %40, %40, %54
  %56 = load ptr, ptr %15, align 8, !tbaa !44
  %57 = load ptr, ptr %9, align 8, !tbaa !9
  %58 = load ptr, ptr %10, align 8, !tbaa !9
  %59 = load i32, ptr %11, align 4, !tbaa !33
  %60 = load ptr, ptr %12, align 8, !tbaa !18
  %61 = load i32, ptr %14, align 4, !tbaa !33
  %62 = call i32 @match_next_pattern(ptr noundef %56, ptr noundef %57, ptr noundef %58, i32 noundef %59, ptr noundef %60, i32 noundef %61)
  %63 = load i32, ptr %16, align 4, !tbaa !33
  %64 = or i32 %63, %62
  store i32 %64, ptr %16, align 4, !tbaa !33
  br label %66

65:                                               ; preds = %40
  br label %66

66:                                               ; preds = %65, %55
  br label %67

67:                                               ; preds = %66, %53
  %68 = load ptr, ptr %15, align 8, !tbaa !44
  %69 = getelementptr inbounds nuw %struct.grep_pat, ptr %68, i32 0, i32 0
  %70 = load ptr, ptr %69, align 8, !tbaa !59
  store ptr %70, ptr %15, align 8, !tbaa !44
  br label %37, !llvm.loop !84

71:                                               ; preds = %37
  br label %72

72:                                               ; preds = %71, %7
  %73 = load i32, ptr %16, align 4, !tbaa !33
  call void @llvm.lifetime.end.p0(i64 4, ptr %16) #11
  call void @llvm.lifetime.end.p0(i64 8, ptr %15) #11
  ret i32 %73
}