; Function Attrs: nounwind uwtable
define dso_local range(i32 0, 2) i32 @grep_next_match(ptr noundef readonly captures(none) %0, ptr noundef %1, ptr noundef %2, i32 noundef %3, ptr noundef captures(none) initializes((0, 8)) %4, i32 noundef %5, i32 noundef %6) local_unnamed_addr #0 {
  %8 = alloca %struct.regmatch_t, align 4
  %9 = getelementptr inbounds nuw i8, ptr %4, i64 4
  store i32 -1, ptr %9, align 4, !tbaa !70
  store i32 -1, ptr %4, align 4, !tbaa !72
  %10 = icmp ult ptr %1, %2
  br i1 %10, label %11, label %.loopexit

11:                                               ; preds = %7
  %12 = icmp eq i32 %3, 0
  %.in.idx = select i1 %12, i64 16, i64 0
  %.in = getelementptr inbounds nuw i8, ptr %0, i64 %.in.idx
  %.02026 = load ptr, ptr %.in, align 8, !tbaa !43
  %.not27 = icmp eq ptr %.02026, null
  br i1 %.not27, label %.loopexit, label %.lr.ph

.lr.ph:                                           ; preds = %11
  %.not24 = icmp eq i32 %5, 3
  %13 = getelementptr inbounds nuw i8, ptr %8, i64 4
  br i1 %.not24, label %.lr.ph.split.us, label %.lr.ph.split

.lr.ph.split.us:                                  ; preds = %.lr.ph, %36
  %.02029.us = phi ptr [ %.020.us, %36 ], [ %.02026, %.lr.ph ]
  %.128.us = phi i32 [ %.2.us, %36 ], [ 0, %.lr.ph ]
  %14 = getelementptr inbounds nuw i8, ptr %.02029.us, i64 20
  %15 = load i32, ptr %14, align 4, !tbaa !39
  %switch = icmp ult i32 %15, 3
  br i1 %switch, label %16, label %36

16:                                               ; preds = %.lr.ph.split.us
  call void @llvm.lifetime.start.p0(i64 8, ptr nonnull %8) #18
  %17 = call fastcc i32 @headerless_match_one_pattern(ptr noundef nonnull %.02029.us, ptr noundef %1, ptr noundef nonnull %2, i32 noundef %3, ptr noundef %8, i32 noundef %6)
  %.not.i.us = icmp eq i32 %17, 0
  br i1 %.not.i.us, label %match_next_pattern.exit.us, label %18

18:                                               ; preds = %16
  %19 = load i32, ptr %8, align 4, !tbaa !72
  %20 = icmp slt i32 %19, 0
  %21 = load i32, ptr %13, align 4
  %22 = icmp slt i32 %21, 0
  %or.cond.i.us = select i1 %20, i1 true, i1 %22
  br i1 %or.cond.i.us, label %match_next_pattern.exit.us, label %23

23:                                               ; preds = %18
  %24 = load i32, ptr %4, align 4, !tbaa !72
  %25 = icmp sgt i32 %24, -1
  br i1 %25, label %26, label %34

26:                                               ; preds = %23
  %27 = load i32, ptr %9, align 4, !tbaa !70
  %28 = icmp sgt i32 %27, -1
  br i1 %28, label %29, label %34

29:                                               ; preds = %26
  %30 = icmp samesign ugt i32 %19, %24
  br i1 %30, label %match_next_pattern.exit.us, label %31

31:                                               ; preds = %29
  %32 = icmp eq i32 %19, %24
  %33 = icmp samesign ult i32 %21, %27
  %or.cond18.i.us = select i1 %32, i1 %33, i1 false
  br i1 %or.cond18.i.us, label %match_next_pattern.exit.us, label %34

34:                                               ; preds = %31, %26, %23
  store i32 %19, ptr %4, align 4, !tbaa !72
  store i32 %21, ptr %9, align 4, !tbaa !70
  br label %match_next_pattern.exit.us

match_next_pattern.exit.us:                       ; preds = %34, %31, %29, %18, %16
  %.0.i.us = phi i32 [ 1, %34 ], [ 0, %16 ], [ 0, %18 ], [ 1, %29 ], [ 1, %31 ]
  call void @llvm.lifetime.end.p0(i64 8, ptr nonnull %8) #18
  %35 = or i32 %.0.i.us, %.128.us
  br label %36

36:                                               ; preds = %.lr.ph.split.us, %match_next_pattern.exit.us
  %.2.us = phi i32 [ %.128.us, %.lr.ph.split.us ], [ %35, %match_next_pattern.exit.us ]
  %.020.us = load ptr, ptr %.02029.us, align 8, !tbaa !43
  %.not.us = icmp eq ptr %.020.us, null
  br i1 %.not.us, label %.loopexit, label %.lr.ph.split.us, !llvm.loop !73

.lr.ph.split:                                     ; preds = %.lr.ph, %62
  %.02029 = phi ptr [ %.020, %62 ], [ %.02026, %.lr.ph ]
  %.128 = phi i32 [ %.2, %62 ], [ 0, %.lr.ph ]
  %37 = getelementptr inbounds nuw i8, ptr %.02029, i64 20
  %38 = load i32, ptr %37, align 4, !tbaa !39
  switch i32 %38, label %62 [
    i32 1, label %39
    i32 0, label %42
    i32 2, label %42
  ]

39:                                               ; preds = %.lr.ph.split
  %40 = getelementptr inbounds nuw i8, ptr %.02029, i64 40
  %41 = load i32, ptr %40, align 8, !tbaa !40
  %.not25 = icmp eq i32 %41, %5
  br i1 %.not25, label %42, label %62

42:                                               ; preds = %39, %.lr.ph.split, %.lr.ph.split
  call void @llvm.lifetime.start.p0(i64 8, ptr nonnull %8) #18
  %43 = call fastcc i32 @headerless_match_one_pattern(ptr noundef nonnull %.02029, ptr noundef %1, ptr noundef nonnull %2, i32 noundef %3, ptr noundef %8, i32 noundef %6)
  %.not.i = icmp eq i32 %43, 0
  br i1 %.not.i, label %match_next_pattern.exit, label %44

44:                                               ; preds = %42
  %45 = load i32, ptr %8, align 4, !tbaa !72
  %46 = icmp slt i32 %45, 0
  %47 = load i32, ptr %13, align 4
  %48 = icmp slt i32 %47, 0
  %or.cond.i = select i1 %46, i1 true, i1 %48
  br i1 %or.cond.i, label %match_next_pattern.exit, label %49

49:                                               ; preds = %44
  %50 = load i32, ptr %4, align 4, !tbaa !72
  %51 = icmp sgt i32 %50, -1
  br i1 %51, label %52, label %60

52:                                               ; preds = %49
  %53 = load i32, ptr %9, align 4, !tbaa !70
  %54 = icmp sgt i32 %53, -1
  br i1 %54, label %55, label %60

55:                                               ; preds = %52
  %56 = icmp samesign ugt i32 %45, %50
  br i1 %56, label %match_next_pattern.exit, label %57

57:                                               ; preds = %55
  %58 = icmp eq i32 %45, %50
  %59 = icmp samesign ult i32 %47, %53
  %or.cond18.i = select i1 %58, i1 %59, i1 false
  br i1 %or.cond18.i, label %match_next_pattern.exit, label %60

60:                                               ; preds = %57, %52, %49
  store i32 %45, ptr %4, align 4, !tbaa !72
  store i32 %47, ptr %9, align 4, !tbaa !70
  br label %match_next_pattern.exit

match_next_pattern.exit:                          ; preds = %42, %44, %55, %57, %60
  %.0.i = phi i32 [ 1, %60 ], [ 0, %42 ], [ 0, %44 ], [ 1, %55 ], [ 1, %57 ]
  call void @llvm.lifetime.end.p0(i64 8, ptr nonnull %8) #18
  %61 = or i32 %.0.i, %.128
  br label %62

62:                                               ; preds = %match_next_pattern.exit, %.lr.ph.split, %39
  %.2 = phi i32 [ %.128, %.lr.ph.split ], [ %61, %match_next_pattern.exit ], [ %.128, %39 ]
  %.020 = load ptr, ptr %.02029, align 8, !tbaa !43
  %.not = icmp eq ptr %.020, null
  br i1 %.not, label %.loopexit, label %.lr.ph.split, !llvm.loop !73

.loopexit:                                        ; preds = %62, %36, %11, %7
  %.0 = phi i32 [ 0, %7 ], [ 0, %11 ], [ %.2.us, %36 ], [ %.2, %62 ]
  ret i32 %.0
}